target datalayout = "e-m:e-p270:32:32-p271:32:32-p272:64:64-i64:64-i128:128-f80:128-n8:16:32:64-S128"
target triple = "x86_64-pc-linux-gnu"

; Function Attrs: nounwind uwtable
define internal float @compute_rms_flt(ptr noundef %0, float noundef %1, float noundef %2, i32 noundef %3, ptr noundef %4, ptr noundef %5) #2 {
  %7 = alloca ptr, align 8
  %8 = alloca float, align 4
  %9 = alloca float, align 4
  %10 = alloca i32, align 4
  %11 = alloca ptr, align 8
  %12 = alloca ptr, align 8
  %13 = alloca float, align 4
  store ptr %0, ptr %7, align 8, !tbaa !95
  store float %1, ptr %8, align 4, !tbaa !97
  store float %2, ptr %9, align 4, !tbaa !97
  store i32 %3, ptr %10, align 4, !tbaa !35
  store ptr %4, ptr %11, align 8, !tbaa !99
  store ptr %5, ptr %12, align 8, !tbaa !99
  call void @llvm.lifetime.start.p0(i64 4, ptr %13) #7
  %14 = load float, ptr %8, align 4, !tbaa !97
  %15 = load float, ptr %8, align 4, !tbaa !97
  %16 = load ptr, ptr %7, align 8, !tbaa !95
  %17 = getelementptr inbounds float, ptr %16, i64 0
  %18 = load float, ptr %17, align 4, !tbaa !97
  %19 = call nsz float @llvm.fmuladd.f32(float %14, float %15, float %18)
  store float %19, ptr %17, align 4, !tbaa !97
  %20 = load float, ptr %9, align 4, !tbaa !97
  %21 = load float, ptr %9, align 4, !tbaa !97
  %22 = load ptr, ptr %7, align 8, !tbaa !95
  %23 = getelementptr inbounds float, ptr %22, i64 0
  %24 = load float, ptr %23, align 4, !tbaa !97
  %25 = fneg nsz float %20
  %26 = call nsz float @llvm.fmuladd.f32(float %25, float %21, float %24)
  store float %26, ptr %23, align 4, !tbaa !97
  %27 = load ptr, ptr %7, align 8, !tbaa !95
  %28 = getelementptr inbounds float, ptr %27, i64 0
  %29 = load float, ptr %28, align 4, !tbaa !97
  %30 = call nsz float @llvm.maxnum.f32(float %29, float 0.000000e+00)
  store float %30, ptr %13, align 4, !tbaa !97
  %31 = load ptr, ptr %7, align 8, !tbaa !95
  %32 = getelementptr inbounds float, ptr %31, i64 0
  store float %30, ptr %32, align 4, !tbaa !97
  %33 = load float, ptr %13, align 4, !tbaa !97
  %34 = load i32, ptr %10, align 4, !tbaa !35
  %35 = sitofp i32 %34 to float
  %36 = fdiv nsz float %33, %35
  %37 = call nsz float @llvm.sqrt.f32(float %36)
  call void @llvm.lifetime.end.p0(i64 4, ptr %13) #7
  ret float %37
}