; Function Attrs: mustprogress nofree norecurse nosync nounwind willreturn memory(argmem: readwrite) uwtable
define internal float @compute_rms_flt(ptr noundef captures(none) %0, float noundef %1, float noundef %2, i32 noundef %3, ptr readnone captures(none) %4, ptr readnone captures(none) %5) #7 {
  %7 = load float, ptr %0, align 4, !tbaa !99
  %8 = tail call nsz float @llvm.fmuladd.f32(float %1, float %1, float %7)
  %9 = fneg nsz float %2
  %10 = tail call nsz float @llvm.fmuladd.f32(float %9, float %2, float %8)
  %11 = tail call nsz float @llvm.maxnum.f32(float %10, float 0.000000e+00)
  store float %11, ptr %0, align 4, !tbaa !99
  %12 = sitofp i32 %3 to float
  %13 = fdiv nsz float %11, %12
  %14 = tail call nsz float @llvm.sqrt.f32(float %13)
  ret float %14
}